target datalayout = "e-m:e-p270:32:32-p271:32:32-p272:64:64-i64:64-i128:128-f80:128-n8:16:32:64-S128"
target triple = "x86_64-pc-linux-gnu"

%struct.ML_KEM_VINFO = type { ptr, i64, i64, i64, i64, i64, i64, i64, i32, i32, i32, i32, i32, i32 }
%struct.ossl_ml_kem_key_st = type { ptr, ptr, ptr, ptr, ptr, ptr, ptr, ptr, ptr, ptr, ptr, ptr, ptr, i32, i32, [64 x i8], ptr }
%struct.ossl_ml_kem_scalar_st = type { [256 x i16] }

@.str = private unnamed_addr constant [34 x i8] c"../openssl/crypto/ml_kem/ml_kem.c\00", align 1

; Function Attrs: nounwind uwtable
define internal i32 @add_storage(ptr noundef %0, i32 noundef %1, ptr noundef %2) #0 {
  %4 = alloca i32, align 4
  %5 = alloca ptr, align 8
  %6 = alloca i32, align 4
  %7 = alloca ptr, align 8
  %8 = alloca i32, align 4
  %9 = alloca i32, align 4
  store ptr %0, ptr %5, align 8, !tbaa !40
  store i32 %1, ptr %6, align 4, !tbaa !23
  store ptr %2, ptr %7, align 8, !tbaa !3
  call void @llvm.lifetime.start.p0(i64 4, ptr %8) #8
  %10 = load ptr, ptr %7, align 8, !tbaa !3
  %11 = getelementptr inbounds nuw %struct.ossl_ml_kem_key_st, ptr %10, i32 0, i32 0
  %12 = load ptr, ptr %11, align 8, !tbaa !16
  %13 = getelementptr inbounds nuw %struct.ML_KEM_VINFO, ptr %12, i32 0, i32 10
  %14 = load i32, ptr %13, align 8, !tbaa !41
  store i32 %14, ptr %8, align 4, !tbaa !23
  %15 = load ptr, ptr %5, align 8, !tbaa !40
  %16 = icmp eq ptr %15, null
  br i1 %16, label %17, label %18

17:                                               ; preds = %3
  store i32 0, ptr %4, align 4
  store i32 1, ptr %9, align 4
  br label %64

18:                                               ; preds = %3
  %19 = load ptr, ptr %7, align 8, !tbaa !3
  %20 = getelementptr inbounds nuw %struct.ossl_ml_kem_key_st, ptr %19, i32 0, i32 15
  %21 = getelementptr inbounds [64 x i8], ptr %20, i64 0, i64 0
  call void @llvm.memset.p0.i64(ptr align 8 %21, i8 0, i64 64, i1 false)
  %22 = load ptr, ptr %7, align 8, !tbaa !3
  %23 = getelementptr inbounds nuw %struct.ossl_ml_kem_key_st, ptr %22, i32 0, i32 15
  %24 = getelementptr inbounds [64 x i8], ptr %23, i64 0, i64 0
  %25 = load ptr, ptr %7, align 8, !tbaa !3
  %26 = getelementptr inbounds nuw %struct.ossl_ml_kem_key_st, ptr %25, i32 0, i32 6
  store ptr %24, ptr %26, align 8, !tbaa !36
  %27 = load ptr, ptr %7, align 8, !tbaa !3
  %28 = getelementptr inbounds nuw %struct.ossl_ml_kem_key_st, ptr %27, i32 0, i32 15
  %29 = getelementptr inbounds [64 x i8], ptr %28, i64 0, i64 0
  %30 = getelementptr inbounds i8, ptr %29, i64 32
  %31 = load ptr, ptr %7, align 8, !tbaa !3
  %32 = getelementptr inbounds nuw %struct.ossl_ml_kem_key_st, ptr %31, i32 0, i32 7
  store ptr %30, ptr %32, align 8, !tbaa !35
  %33 = load ptr, ptr %7, align 8, !tbaa !3
  %34 = getelementptr inbounds nuw %struct.ossl_ml_kem_key_st, ptr %33, i32 0, i32 11
  store ptr null, ptr %34, align 8, !tbaa !21
  %35 = load ptr, ptr %7, align 8, !tbaa !3
  %36 = getelementptr inbounds nuw %struct.ossl_ml_kem_key_st, ptr %35, i32 0, i32 12
  store ptr null, ptr %36, align 8, !tbaa !22
  %37 = load ptr, ptr %5, align 8, !tbaa !40
  %38 = load ptr, ptr %7, align 8, !tbaa !3
  %39 = getelementptr inbounds nuw %struct.ossl_ml_kem_key_st, ptr %38, i32 0, i32 8
  store ptr %37, ptr %39, align 8, !tbaa !8
  %40 = load i32, ptr %8, align 4, !tbaa !23
  %41 = sext i32 %40 to i64
  %42 = getelementptr inbounds %struct.ossl_ml_kem_scalar_st, ptr %37, i64 %41
  %43 = load ptr, ptr %7, align 8, !tbaa !3
  %44 = getelementptr inbounds nuw %struct.ossl_ml_kem_key_st, ptr %43, i32 0, i32 9
  store ptr %42, ptr %44, align 8, !tbaa !20
  %45 = load i32, ptr %6, align 4, !tbaa !23
  %46 = icmp ne i32 %45, 0
  br i1 %46, label %47, label %63

47:                                               ; preds = %18
  %48 = load i32, ptr %8, align 4, !tbaa !23
  %49 = load ptr, ptr %7, align 8, !tbaa !3
  %50 = getelementptr inbounds nuw %struct.ossl_ml_kem_key_st, ptr %49, i32 0, i32 9
  %51 = load ptr, ptr %50, align 8, !tbaa !20
  %52 = load i32, ptr %8, align 4, !tbaa !23
  %53 = load i32, ptr %8, align 4, !tbaa !23
  %54 = mul nsw i32 %52, %53
  %55 = sext i32 %54 to i64
  %56 = getelementptr inbounds %struct.ossl_ml_kem_scalar_st, ptr %51, i64 %55
  %57 = load ptr, ptr %7, align 8, !tbaa !3
  %58 = getelementptr inbounds nuw %struct.ossl_ml_kem_key_st, ptr %57, i32 0, i32 10
  store ptr %56, ptr %58, align 8, !tbaa !15
  %59 = sext i32 %48 to i64
  %60 = getelementptr inbounds %struct.ossl_ml_kem_scalar_st, ptr %56, i64 %59
  %61 = load ptr, ptr %7, align 8, !tbaa !3
  %62 = getelementptr inbounds nuw %struct.ossl_ml_kem_key_st, ptr %61, i32 0, i32 11
  store ptr %60, ptr %62, align 8, !tbaa !21
  br label %63

63:                                               ; preds = %47, %18
  store i32 1, ptr %4, align 4
  store i32 1, ptr %9, align 4
  br label %64

64:                                               ; preds = %63, %17
  call void @llvm.lifetime.end.p0(i64 4, ptr %8) #8
  %65 = load i32, ptr %4, align 4
  ret i32 %65
}

; Function Attrs: nounwind uwtable
define i32 @ossl_ml_kem_encode_seed(ptr noundef %0, i64 noundef %1, ptr noundef %2) #0 {
  %4 = alloca i32, align 4
  %5 = alloca ptr, align 8
  %6 = alloca i64, align 8
  %7 = alloca ptr, align 8
  store ptr %0, ptr %5, align 8, !tbaa !25
  store i64 %1, ptr %6, align 8, !tbaa !42
  store ptr %2, ptr %7, align 8, !tbaa !3
  %8 = load ptr, ptr %7, align 8, !tbaa !3
  %9 = icmp eq ptr %8, null
  br i1 %9, label %18, label %10

10:                                               ; preds = %3
  %11 = load ptr, ptr %7, align 8, !tbaa !3
  %12 = getelementptr inbounds nuw %struct.ossl_ml_kem_key_st, ptr %11, i32 0, i32 12
  %13 = load ptr, ptr %12, align 8, !tbaa !22
  %14 = icmp eq ptr %13, null
  br i1 %14, label %18, label %15

15:                                               ; preds = %10
  %16 = load i64, ptr %6, align 8, !tbaa !42
  %17 = icmp ne i64 %16, 64
  br i1 %17, label %18, label %19

18:                                               ; preds = %15, %10, %3
  store i32 0, ptr %4, align 4
  br label %30

19:                                               ; preds = %15
  %20 = load ptr, ptr %5, align 8, !tbaa !25
  %21 = load ptr, ptr %7, align 8, !tbaa !3
  %22 = getelementptr inbounds nuw %struct.ossl_ml_kem_key_st, ptr %21, i32 0, i32 12
  %23 = load ptr, ptr %22, align 8, !tbaa !22
  call void @llvm.memcpy.p0.p0.i64(ptr align 1 %20, ptr align 1 %23, i64 32, i1 false)
  %24 = load ptr, ptr %5, align 8, !tbaa !25
  %25 = getelementptr inbounds i8, ptr %24, i64 32
  store ptr %25, ptr %5, align 8, !tbaa !25
  %26 = load ptr, ptr %5, align 8, !tbaa !25
  %27 = load ptr, ptr %7, align 8, !tbaa !3
  %28 = getelementptr inbounds nuw %struct.ossl_ml_kem_key_st, ptr %27, i32 0, i32 11
  %29 = load ptr, ptr %28, align 8, !tbaa !21
  call void @llvm.memcpy.p0.p0.i64(ptr align 1 %26, ptr align 1 %29, i64 32, i1 false)
  store i32 1, ptr %4, align 4
  br label %30

30:                                               ; preds = %19, %18
  %31 = load i32, ptr %4, align 4
  ret i32 %31
}

; Function Attrs: nounwind uwtable
define i32 @ossl_ml_kem_genkey(ptr noundef %0, i64 noundef %1, ptr noundef %2) #0 {
  %4 = alloca i32, align 4
  %5 = alloca ptr, align 8
  %6 = alloca i64, align 8
  %7 = alloca ptr, align 8
  %8 = alloca [64 x i8], align 16
  %9 = alloca ptr, align 8
  %10 = alloca ptr, align 8
  %11 = alloca i32, align 4
  %12 = alloca i32, align 4
  store ptr %0, ptr %5, align 8, !tbaa !25
  store i64 %1, ptr %6, align 8, !tbaa !42
  store ptr %2, ptr %7, align 8, !tbaa !3
  call void @llvm.lifetime.start.p0(i64 64, ptr %8) #8
  call void @llvm.lifetime.start.p0(i64 8, ptr %9) #8
  store ptr null, ptr %9, align 8, !tbaa !44
  call void @llvm.lifetime.start.p0(i64 8, ptr %10) #8
  call void @llvm.lifetime.start.p0(i64 4, ptr %11) #8
  store i32 0, ptr %11, align 4, !tbaa !23
  %13 = load ptr, ptr %7, align 8, !tbaa !3
  %14 = icmp eq ptr %13, null
  br i1 %14, label %25, label %15

15:                                               ; preds = %3
  %16 = load ptr, ptr %7, align 8, !tbaa !3
  %17 = getelementptr inbounds nuw %struct.ossl_ml_kem_key_st, ptr %16, i32 0, i32 8
  %18 = load ptr, ptr %17, align 8, !tbaa !8
  %19 = icmp ne ptr %18, null
  br i1 %19, label %25, label %20

20:                                               ; preds = %15
  %21 = load ptr, ptr %7, align 8, !tbaa !3
  %22 = getelementptr inbounds nuw %struct.ossl_ml_kem_key_st, ptr %21, i32 0, i32 16
  %23 = load ptr, ptr %22, align 8, !tbaa !34
  %24 = icmp ne ptr %23, null
  br i1 %24, label %25, label %26

25:                                               ; preds = %20, %15, %3
  store i32 0, ptr %4, align 4
  store i32 1, ptr %12, align 4
  br label %95

26:                                               ; preds = %20
  %27 = load ptr, ptr %7, align 8, !tbaa !3
  %28 = getelementptr inbounds nuw %struct.ossl_ml_kem_key_st, ptr %27, i32 0, i32 0
  %29 = load ptr, ptr %28, align 8, !tbaa !16
  store ptr %29, ptr %10, align 8, !tbaa !26
  %30 = load ptr, ptr %5, align 8, !tbaa !25
  %31 = icmp ne ptr %30, null
  br i1 %31, label %32, label %39

32:                                               ; preds = %26
  %33 = load i64, ptr %6, align 8, !tbaa !42
  %34 = load ptr, ptr %10, align 8, !tbaa !26
  %35 = getelementptr inbounds nuw %struct.ML_KEM_VINFO, ptr %34, i32 0, i32 3
  %36 = load i64, ptr %35, align 8, !tbaa !43
  %37 = icmp ne i64 %33, %36
  br i1 %37, label %38, label %39

38:                                               ; preds = %32
  store i32 0, ptr %4, align 4
  store i32 1, ptr %12, align 4
  br label %95

39:                                               ; preds = %32, %26
  %40 = load ptr, ptr %7, align 8, !tbaa !3
  %41 = getelementptr inbounds nuw %struct.ossl_ml_kem_key_st, ptr %40, i32 0, i32 12
  %42 = load ptr, ptr %41, align 8, !tbaa !22
  %43 = icmp ne ptr %42, null
  br i1 %43, label %44, label %55

44:                                               ; preds = %39
  %45 = getelementptr inbounds [64 x i8], ptr %8, i64 0, i64 0
  %46 = load ptr, ptr %7, align 8, !tbaa !3
  %47 = call i32 @ossl_ml_kem_encode_seed(ptr noundef %45, i64 noundef 64, ptr noundef %46)
  %48 = icmp ne i32 %47, 0
  br i1 %48, label %50, label %49

49:                                               ; preds = %44
  store i32 0, ptr %4, align 4
  store i32 1, ptr %12, align 4
  br label %95

50:                                               ; preds = %44
  %51 = load ptr, ptr %7, align 8, !tbaa !3
  %52 = getelementptr inbounds nuw %struct.ossl_ml_kem_key_st, ptr %51, i32 0, i32 11
  store ptr null, ptr %52, align 8, !tbaa !21
  %53 = load ptr, ptr %7, align 8, !tbaa !3
  %54 = getelementptr inbounds nuw %struct.ossl_ml_kem_key_st, ptr %53, i32 0, i32 12
  store ptr null, ptr %54, align 8, !tbaa !22
  br label %69

55:                                               ; preds = %39
  %56 = load ptr, ptr %7, align 8, !tbaa !3
  %57 = getelementptr inbounds nuw %struct.ossl_ml_kem_key_st, ptr %56, i32 0, i32 1
  %58 = load ptr, ptr %57, align 8, !tbaa !27
  %59 = getelementptr inbounds [64 x i8], ptr %8, i64 0, i64 0
  %60 = load ptr, ptr %7, align 8, !tbaa !3
  %61 = getelementptr inbounds nuw %struct.ossl_ml_kem_key_st, ptr %60, i32 0, i32 0
  %62 = load ptr, ptr %61, align 8, !tbaa !16
  %63 = getelementptr inbounds nuw %struct.ML_KEM_VINFO, ptr %62, i32 0, i32 13
  %64 = load i32, ptr %63, align 4, !tbaa !46
  %65 = call i32 @RAND_priv_bytes_ex(ptr noundef %58, ptr noundef %59, i64 noundef 64, i32 noundef %64)
  %66 = icmp sle i32 %65, 0
  br i1 %66, label %67, label %68

67:                                               ; preds = %55
  store i32 0, ptr %4, align 4
  store i32 1, ptr %12, align 4
  br label %95

68:                                               ; preds = %55
  br label %69

69:                                               ; preds = %68, %50
  %70 = call ptr @EVP_MD_CTX_new()
  store ptr %70, ptr %9, align 8, !tbaa !44
  %71 = icmp eq ptr %70, null
  br i1 %71, label %72, label %73

72:                                               ; preds = %69
  store i32 0, ptr %4, align 4
  store i32 1, ptr %12, align 4
  br label %95

73:                                               ; preds = %69
  %74 = load ptr, ptr %10, align 8, !tbaa !26
  %75 = getelementptr inbounds nuw %struct.ML_KEM_VINFO, ptr %74, i32 0, i32 2
  %76 = load i64, ptr %75, align 8, !tbaa !39
  %77 = call noalias ptr @CRYPTO_malloc(i64 noundef %76, ptr noundef @.str, i32 noundef 1845)
  %78 = load ptr, ptr %7, align 8, !tbaa !3
  %79 = call i32 @add_storage(ptr noundef %77, i32 noundef 1, ptr noundef %78)
  %80 = icmp ne i32 %79, 0
  br i1 %80, label %81, label %87

81:                                               ; preds = %73
  %82 = getelementptr inbounds [64 x i8], ptr %8, i64 0, i64 0
  %83 = load ptr, ptr %9, align 8, !tbaa !44
  %84 = load ptr, ptr %5, align 8, !tbaa !25
  %85 = load ptr, ptr %7, align 8, !tbaa !3
  %86 = call i32 @genkey(ptr noundef %82, ptr noundef %83, ptr noundef %84, ptr noundef %85)
  store i32 %86, ptr %11, align 4, !tbaa !23
  br label %87

87:                                               ; preds = %81, %73
  %88 = getelementptr inbounds [64 x i8], ptr %8, i64 0, i64 0
  call void @OPENSSL_cleanse(ptr noundef %88, i64 noundef 64)
  %89 = load ptr, ptr %9, align 8, !tbaa !44
  call void @EVP_MD_CTX_free(ptr noundef %89)
  %90 = load i32, ptr %11, align 4, !tbaa !23
  %91 = icmp ne i32 %90, 0
  br i1 %91, label %94, label %92

92:                                               ; preds = %87
  %93 = load ptr, ptr %7, align 8, !tbaa !3
  call void @ossl_ml_kem_key_reset(ptr noundef %93)
  store i32 0, ptr %4, align 4
  store i32 1, ptr %12, align 4
  br label %95

94:                                               ; preds = %87
  store i32 1, ptr %4, align 4
  store i32 1, ptr %12, align 4
  br label %95

95:                                               ; preds = %94, %92, %72, %67, %49, %38, %25
  call void @llvm.lifetime.end.p0(i64 4, ptr %11) #8
  call void @llvm.lifetime.end.p0(i64 8, ptr %10) #8
  call void @llvm.lifetime.end.p0(i64 8, ptr %9) #8
  call void @llvm.lifetime.end.p0(i64 64, ptr %8) #8
  %96 = load i32, ptr %4, align 4
  ret i32 %96
}