; Function Attrs: nounwind uwtable
define range(i32 0, 2) i32 @ossl_ml_kem_genkey(ptr noundef %0, i64 noundef %1, ptr noundef %2) local_unnamed_addr #0 {
  %4 = alloca [64 x i8], align 16
  call void @llvm.lifetime.start.p0(i64 64, ptr nonnull %4) #13
  %5 = icmp eq ptr %2, null
  br i1 %5, label %60, label %6

6:                                                ; preds = %3
  %7 = getelementptr inbounds nuw i8, ptr %2, i64 64
  %8 = load ptr, ptr %7, align 8, !tbaa !3
  %.not = icmp eq ptr %8, null
  br i1 %.not, label %9, label %60

9:                                                ; preds = %6
  %10 = getelementptr inbounds nuw i8, ptr %2, i64 176
  %11 = load ptr, ptr %10, align 8, !tbaa !25
  %.not24 = icmp eq ptr %11, null
  br i1 %.not24, label %12, label %60

12:                                               ; preds = %9
  %13 = load ptr, ptr %2, align 8, !tbaa !14
  %.not25 = icmp eq ptr %0, null
  br i1 %.not25, label %17, label %14

14:                                               ; preds = %12
  %15 = getelementptr inbounds nuw i8, ptr %13, i64 24
  %16 = load i64, ptr %15, align 8, !tbaa !35
  %.not26 = icmp eq i64 %1, %16
  br i1 %.not26, label %17, label %60

17:                                               ; preds = %14, %12
  %18 = getelementptr inbounds nuw i8, ptr %2, i64 96
  %19 = load ptr, ptr %18, align 8, !tbaa !26
  %.not27 = icmp eq ptr %19, null
  br i1 %.not27, label %24, label %20

20:                                               ; preds = %17
  call void @llvm.memcpy.p0.p0.i64(ptr noundef nonnull align 16 dereferenceable(32) %4, ptr noundef nonnull align 1 dereferenceable(32) %19, i64 32, i1 false)
  %21 = getelementptr inbounds nuw i8, ptr %4, i64 32
  %22 = getelementptr inbounds nuw i8, ptr %2, i64 88
  %23 = load ptr, ptr %22, align 8, !tbaa !34
  call void @llvm.memcpy.p0.p0.i64(ptr noundef nonnull align 16 dereferenceable(32) %21, ptr noundef nonnull align 1 dereferenceable(32) %23, i64 32, i1 false)
  tail call void @llvm.memset.p0.i64(ptr noundef nonnull align 8 dereferenceable(16) %22, i8 0, i64 16, i1 false)
  br label %31

24:                                               ; preds = %17
  %25 = getelementptr inbounds nuw i8, ptr %2, i64 8
  %26 = load ptr, ptr %25, align 8, !tbaa !18
  %27 = getelementptr inbounds nuw i8, ptr %13, i64 84
  %28 = load i32, ptr %27, align 4, !tbaa !44
  %29 = call i32 @RAND_priv_bytes_ex(ptr noundef %26, ptr noundef nonnull %4, i64 noundef 64, i32 noundef %28) #13
  %30 = icmp slt i32 %29, 1
  br i1 %30, label %60, label %31

31:                                               ; preds = %24, %20
  %32 = call ptr @EVP_MD_CTX_new() #13
  %33 = icmp eq ptr %32, null
  br i1 %33, label %60, label %34

34:                                               ; preds = %31
  %35 = getelementptr inbounds nuw i8, ptr %13, i64 16
  %36 = load i64, ptr %35, align 8, !tbaa !33
  %37 = call noalias ptr @CRYPTO_malloc(i64 noundef %36, ptr noundef nonnull @.str, i32 noundef 1845) #13
  %38 = icmp eq ptr %37, null
  br i1 %38, label %.critedge, label %39

39:                                               ; preds = %34
  %40 = load ptr, ptr %2, align 8, !tbaa !14
  %41 = getelementptr inbounds nuw i8, ptr %40, i64 72
  %42 = load i32, ptr %41, align 8, !tbaa !29
  %43 = getelementptr inbounds nuw i8, ptr %2, i64 112
  call void @llvm.memset.p0.i64(ptr noundef nonnull align 8 dereferenceable(64) %43, i8 0, i64 64, i1 false)
  %44 = getelementptr inbounds nuw i8, ptr %2, i64 48
  store ptr %43, ptr %44, align 8, !tbaa !31
  %45 = getelementptr inbounds nuw i8, ptr %2, i64 144
  %46 = getelementptr inbounds nuw i8, ptr %2, i64 56
  store ptr %45, ptr %46, align 8, !tbaa !32
  %47 = getelementptr inbounds nuw i8, ptr %2, i64 88
  %48 = getelementptr inbounds nuw i8, ptr %2, i64 96
  store i64 0, ptr %48, align 8
  store ptr %37, ptr %7, align 8, !tbaa !3
  %49 = sext i32 %42 to i64
  %50 = getelementptr inbounds %struct.ossl_ml_kem_scalar_st, ptr %37, i64 %49
  %51 = getelementptr inbounds nuw i8, ptr %2, i64 72
  store ptr %50, ptr %51, align 8, !tbaa !30
  %52 = mul nsw i32 %42, %42
  %53 = zext nneg i32 %52 to i64
  %54 = getelementptr inbounds nuw %struct.ossl_ml_kem_scalar_st, ptr %50, i64 %53
  %55 = getelementptr inbounds nuw i8, ptr %2, i64 80
  store ptr %54, ptr %55, align 8, !tbaa !13
  %56 = getelementptr inbounds %struct.ossl_ml_kem_scalar_st, ptr %54, i64 %49
  store ptr %56, ptr %47, align 8, !tbaa !34
  %57 = call fastcc i32 @genkey(ptr noundef %4, ptr noundef %32, ptr noundef %0, ptr noundef %2)
  %58 = icmp eq i32 %57, 0
  call void @OPENSSL_cleanse(ptr noundef nonnull %4, i64 noundef 64) #13
  call void @EVP_MD_CTX_free(ptr noundef nonnull %32) #13
  br i1 %58, label %59, label %60

.critedge:                                        ; preds = %34
  call void @OPENSSL_cleanse(ptr noundef nonnull %4, i64 noundef 64) #13
  call void @EVP_MD_CTX_free(ptr noundef nonnull %32) #13
  br label %59

59:                                               ; preds = %.critedge, %39
  call void @ossl_ml_kem_key_reset(ptr noundef nonnull %2)
  br label %60

60:                                               ; preds = %39, %31, %24, %14, %3, %6, %9, %59
  %.021 = phi i32 [ 0, %59 ], [ 0, %9 ], [ 0, %6 ], [ 0, %3 ], [ 0, %14 ], [ 0, %24 ], [ 0, %31 ], [ 1, %39 ]
  call void @llvm.lifetime.end.p0(i64 64, ptr nonnull %4) #13
  ret i32 %.021
}